target datalayout = "e-m:e-p270:32:32-p271:32:32-p272:64:64-i64:64-i128:128-f80:128-n8:16:32:64-S128"
target triple = "x86_64-pc-linux-gnu"

%struct.TT_GraphicsState_ = type { i16, i16, i16, %struct.FT_UnitVector_, %struct.FT_UnitVector_, %struct.FT_UnitVector_, i64, i64, i32, i8, i64, i64, i64, i16, i16, i8, i8, i32, i16, i16, i16 }
%struct.FT_UnitVector_ = type { i16, i16 }
%struct.TT_GlyphZoneRec_ = type { ptr, i16, i16, i16, i16, ptr, ptr, ptr, ptr, ptr, i16 }
%struct.FT_Size_Metrics_ = type { i16, i16, i64, i64, i64, i64, i64, i64 }
%struct.TT_Size_Metrics_ = type { i64, i64, i16, i64, i64, [4 x i64], i8, i8, i8 }
%struct.TT_CodeRange_ = type { ptr, i64 }
%struct.TT_ExecContextRec_ = type { ptr, ptr, ptr, i32, i64, i64, ptr, i64, i64, %struct.TT_GlyphZoneRec_, %struct.TT_GlyphZoneRec_, %struct.TT_GlyphZoneRec_, %struct.TT_GlyphZoneRec_, %struct.TT_GlyphZoneRec_, i64, %struct.FT_Size_Metrics_, %struct.TT_Size_Metrics_, %struct.TT_GraphicsState_, i32, i32, ptr, i64, i64, i8, i32, i8, i64, ptr, i64, ptr, i32, ptr, i32, i32, ptr, i32, i32, ptr, i32, i32, i32, i32, ptr, i16, i16, [3 x %struct.TT_CodeRange_], i16, ptr, i16, ptr, i64, i64, i64, i8, %struct.TT_GraphicsState_, i8, i8, i64, ptr, ptr, ptr, ptr, ptr, ptr, ptr, ptr, ptr, ptr, i8, i8, i8, i8, i8, i8, i8, i64, i64, i64, i64 }

; Function Attrs: nounwind uwtable
define internal void @Modify_CVT_Check(ptr noundef %0) #0 {
  %2 = alloca ptr, align 8
  %3 = alloca ptr, align 8
  %4 = alloca i32, align 4
  store ptr %0, ptr %2, align 8
  %5 = load ptr, ptr %2, align 8
  %6 = getelementptr inbounds %struct.TT_ExecContextRec_, ptr %5, i32 0, i32 18
  %7 = load i32, ptr %6, align 8
  %8 = icmp eq i32 %7, 3
  br i1 %8, label %9, label %61

9:                                                ; preds = %1
  %10 = load ptr, ptr %2, align 8
  %11 = getelementptr inbounds %struct.TT_ExecContextRec_, ptr %10, i32 0, i32 27
  %12 = load ptr, ptr %11, align 8
  %13 = load ptr, ptr %2, align 8
  %14 = getelementptr inbounds %struct.TT_ExecContextRec_, ptr %13, i32 0, i32 29
  %15 = load ptr, ptr %14, align 8
  %16 = icmp ne ptr %12, %15
  br i1 %16, label %17, label %61

17:                                               ; preds = %9
  %18 = load ptr, ptr %2, align 8
  %19 = getelementptr inbounds %struct.TT_ExecContextRec_, ptr %18, i32 0, i32 2
  %20 = load ptr, ptr %19, align 8
  store ptr %20, ptr %3, align 8
  %21 = load ptr, ptr %3, align 8
  %22 = load ptr, ptr %2, align 8
  %23 = getelementptr inbounds %struct.TT_ExecContextRec_, ptr %22, i32 0, i32 28
  %24 = load i64, ptr %23, align 8
  %25 = load ptr, ptr %2, align 8
  %26 = getelementptr inbounds %struct.TT_ExecContextRec_, ptr %25, i32 0, i32 26
  %27 = load i64, ptr %26, align 8
  %28 = load ptr, ptr %2, align 8
  %29 = getelementptr inbounds %struct.TT_ExecContextRec_, ptr %28, i32 0, i32 29
  %30 = load ptr, ptr %29, align 8
  %31 = call ptr @ft_mem_qrealloc(ptr noundef %21, i64 noundef 8, i64 noundef %24, i64 noundef %27, ptr noundef %30, ptr noundef %4)
  %32 = load ptr, ptr %2, align 8
  %33 = getelementptr inbounds %struct.TT_ExecContextRec_, ptr %32, i32 0, i32 29
  store ptr %31, ptr %33, align 8
  %34 = load i32, ptr %4, align 4
  %35 = load ptr, ptr %2, align 8
  %36 = getelementptr inbounds %struct.TT_ExecContextRec_, ptr %35, i32 0, i32 3
  store i32 %34, ptr %36, align 8
  %37 = load i32, ptr %4, align 4
  %38 = icmp ne i32 %37, 0
  br i1 %38, label %39, label %40

39:                                               ; preds = %17
  br label %61

40:                                               ; preds = %17
  %41 = load ptr, ptr %2, align 8
  %42 = getelementptr inbounds %struct.TT_ExecContextRec_, ptr %41, i32 0, i32 26
  %43 = load i64, ptr %42, align 8
  %44 = load ptr, ptr %2, align 8
  %45 = getelementptr inbounds %struct.TT_ExecContextRec_, ptr %44, i32 0, i32 28
  store i64 %43, ptr %45, align 8
  %46 = load ptr, ptr %2, align 8
  %47 = getelementptr inbounds %struct.TT_ExecContextRec_, ptr %46, i32 0, i32 29
  %48 = load ptr, ptr %47, align 8
  %49 = load ptr, ptr %2, align 8
  %50 = getelementptr inbounds %struct.TT_ExecContextRec_, ptr %49, i32 0, i32 27
  %51 = load ptr, ptr %50, align 8
  %52 = load ptr, ptr %2, align 8
  %53 = getelementptr inbounds %struct.TT_ExecContextRec_, ptr %52, i32 0, i32 28
  %54 = load i64, ptr %53, align 8
  %55 = mul i64 %54, 8
  call void @llvm.memcpy.p0.p0.i64(ptr align 8 %48, ptr align 8 %51, i64 %55, i1 false)
  %56 = load ptr, ptr %2, align 8
  %57 = getelementptr inbounds %struct.TT_ExecContextRec_, ptr %56, i32 0, i32 29
  %58 = load ptr, ptr %57, align 8
  %59 = load ptr, ptr %2, align 8
  %60 = getelementptr inbounds %struct.TT_ExecContextRec_, ptr %59, i32 0, i32 27
  store ptr %58, ptr %60, align 8
  br label %61

61:                                               ; preds = %40, %39, %9, %1
  ret void
}

; Function Attrs: nounwind uwtable
define internal void @Move_CVT(ptr noundef %0, i64 noundef %1, i64 noundef %2) #0 {
  %4 = alloca ptr, align 8
  %5 = alloca i64, align 8
  %6 = alloca i64, align 8
  store ptr %0, ptr %4, align 8
  store i64 %1, ptr %5, align 8
  store i64 %2, ptr %6, align 8
  %7 = load ptr, ptr %4, align 8
  call void @Modify_CVT_Check(ptr noundef %7)
  %8 = load ptr, ptr %4, align 8
  %9 = getelementptr inbounds %struct.TT_ExecContextRec_, ptr %8, i32 0, i32 3
  %10 = load i32, ptr %9, align 8
  %11 = icmp ne i32 %10, 0
  br i1 %11, label %12, label %13

12:                                               ; preds = %3
  br label %27

13:                                               ; preds = %3
  %14 = load ptr, ptr %4, align 8
  %15 = getelementptr inbounds %struct.TT_ExecContextRec_, ptr %14, i32 0, i32 27
  %16 = load ptr, ptr %15, align 8
  %17 = load i64, ptr %5, align 8
  %18 = getelementptr inbounds i64, ptr %16, i64 %17
  %19 = load i64, ptr %18, align 8
  %20 = load i64, ptr %6, align 8
  %21 = add i64 %19, %20
  %22 = load ptr, ptr %4, align 8
  %23 = getelementptr inbounds %struct.TT_ExecContextRec_, ptr %22, i32 0, i32 27
  %24 = load ptr, ptr %23, align 8
  %25 = load i64, ptr %5, align 8
  %26 = getelementptr inbounds i64, ptr %24, i64 %25
  store i64 %21, ptr %26, align 8
  br label %27

27:                                               ; preds = %13, %12
  ret void
}