; Function Attrs: nounwind uwtable
define internal void @Move_CVT(ptr nocapture noundef %0, i64 noundef %1, i64 noundef %2) #2 {
  %4 = alloca i32, align 4
  call void @llvm.lifetime.start.p0(i64 4, ptr nonnull %4)
  %5 = getelementptr inbounds i8, ptr %0, i64 632
  %6 = load i32, ptr %5, align 8
  %7 = icmp eq i32 %6, 3
  br i1 %7, label %8, label %Modify_CVT_Check.exit

8:                                                ; preds = %3
  %9 = getelementptr inbounds i8, ptr %0, i64 688
  %10 = load ptr, ptr %9, align 8
  %11 = getelementptr inbounds i8, ptr %0, i64 704
  %12 = load ptr, ptr %11, align 8
  %.not.i = icmp eq ptr %10, %12
  br i1 %.not.i, label %Modify_CVT_Check.exit, label %13

13:                                               ; preds = %8
  %14 = getelementptr inbounds i8, ptr %0, i64 16
  %15 = load ptr, ptr %14, align 8
  %16 = getelementptr inbounds i8, ptr %0, i64 696
  %17 = load i64, ptr %16, align 8
  %18 = getelementptr inbounds i8, ptr %0, i64 680
  %19 = load i64, ptr %18, align 8
  %20 = call ptr @ft_mem_qrealloc(ptr noundef %15, i64 noundef 8, i64 noundef %17, i64 noundef %19, ptr noundef %12, ptr noundef nonnull %4) #22
  store ptr %20, ptr %11, align 8
  %21 = load i32, ptr %4, align 4
  %22 = getelementptr inbounds i8, ptr %0, i64 24
  store i32 %21, ptr %22, align 8
  %.not17.i = icmp eq i32 %21, 0
  br i1 %.not17.i, label %23, label %Modify_CVT_Check.exit

23:                                               ; preds = %13
  %24 = load i64, ptr %18, align 8
  store i64 %24, ptr %16, align 8
  %25 = load ptr, ptr %9, align 8
  %26 = shl i64 %24, 3
  call void @llvm.memcpy.p0.p0.i64(ptr align 8 %20, ptr align 8 %25, i64 %26, i1 false)
  %27 = load ptr, ptr %11, align 8
  store ptr %27, ptr %9, align 8
  br label %Modify_CVT_Check.exit

Modify_CVT_Check.exit:                            ; preds = %3, %8, %13, %23
  call void @llvm.lifetime.end.p0(i64 4, ptr nonnull %4)
  %28 = getelementptr inbounds i8, ptr %0, i64 24
  %29 = load i32, ptr %28, align 8
  %.not = icmp eq i32 %29, 0
  br i1 %.not, label %30, label %36

30:                                               ; preds = %Modify_CVT_Check.exit
  %31 = getelementptr inbounds i8, ptr %0, i64 688
  %32 = load ptr, ptr %31, align 8
  %33 = getelementptr inbounds i64, ptr %32, i64 %1
  %34 = load i64, ptr %33, align 8
  %35 = add i64 %34, %2
  store i64 %35, ptr %33, align 8
  br label %36

36:                                               ; preds = %Modify_CVT_Check.exit, %30
  ret void
}